Certificate:
    Data:
        Version: 3 (0x2)
        Serial Number:
            47:c8:72:89:10:85:8d:89:f4:61:e4:ab:77:76:b2:69
        Signature Algorithm: sha256WithRSAEncryption
        Issuer: CN=john
        Validity
            Not Before: Oct 27 07:08:42 2024 GMT
            Not After : Jan 30 07:08:42 2027 GMT
        Subject: CN=test
        Subject Public Key Info:
            Public Key Algorithm: rsaEncryption
                Public-Key: (2048 bit)
                Modulus:
                    00:e7:1f:54:bd:9a:a9:9e:cb:13:82:d5:30:6c:f5:
                    b2:d9:99:d8:e1:c8:99:66:08:20:d8:17:4f:83:13:
                    52:b3:cd:8c:d2:78:93:3f:62:86:56:e7:bf:0c:a2:
                    6d:43:e2:e5:02:8d:05:81:19:01:e5:1e:b8:fd:a2:
                    d6:92:5a:f6:a1:88:2c:f7:18:1d:ab:43:50:c8:4e:
                    ff:07:62:c1:b5:a1:1f:22:5e:22:88:c7:7b:8d:e7:
                    00:49:01:c2:51:7c:ca:0b:ae:d3:c3:c3:37:1c:b0:
                    77:2d:d3:39:0d:6e:36:e4:79:66:29:71:a8:04:b9:
                    4b:3c:49:e2:93:a9:2a:3a:d1:70:55:be:44:7e:af:
                    be:5e:a9:ed:88:5b:92:f5:9d:13:e8:90:9f:7c:b9:
                    72:a5:8b:58:c1:bb:8f:bb:57:86:4d:b0:0a:24:b7:
                    16:c1:e9:53:65:b2:8a:4e:2e:0b:79:61:5a:a0:fa:
                    b1:c3:34:77:52:ec:3e:41:cb:b5:d3:31:9f:c5:37:
                    4c:cc:3e:5a:e7:5c:16:06:ba:ff:2b:08:c3:87:11:
                    82:39:37:47:65:d6:55:80:82:1a:a6:48:e5:77:9b:
                    b1:92:ae:4a:6f:7a:b7:3b:a7:ba:d1:68:55:a3:cd:
                    1f:02:d2:a1:ae:03:3b:27:e6:2f:9e:fb:fe:ba:8a:
                    83:b9
                Exponent: 65537 (0x10001)
        X509v3 extensions:
            X509v3 Basic Constraints: 
                CA:FALSE
            X509v3 Subject Key Identifier: 
                3B:9F:4B:E2:D8:38:67:D9:64:82:92:D6:66:A1:34:07:73:20:E5:64
            X509v3 Authority Key Identifier: 
                keyid:23:9A:EE:FD:59:9B:8A:E1:44:92:83:9E:FB:53:3A:FF:EA:F6:52:80
                DirName:/CN=john
                serial:6A:01:A4:DD:AE:FC:D1:82:56:1C:10:37:67:F9:65:7C:2B:55:66:92
            X509v3 Extended Key Usage: 
                TLS Web Client Authentication
            X509v3 Key Usage: 
                Digital Signature
    Signature Algorithm: sha256WithRSAEncryption
    Signature Value:
        55:3b:44:16:65:4a:a0:bb:bc:a0:fd:c9:b6:8d:bf:f9:b9:11:
        5e:97:72:b5:58:e1:84:ef:71:e5:67:00:a4:e2:25:09:97:98:
        4d:69:00:e8:d7:34:d4:71:4f:84:78:a3:ed:3d:d6:3e:7f:a4:
        13:e5:94:d0:6d:7d:8a:52:65:b6:4a:da:f9:ea:06:04:67:73:
        3c:95:00:a0:84:19:65:bd:0e:5d:96:7b:dc:93:9f:6f:b1:09:
        23:cc:09:f8:cc:2c:6b:af:0b:2d:91:72:47:54:57:2c:1b:a3:
        17:64:16:bd:6f:87:49:77:3a:00:18:fa:97:65:40:12:46:1c:
        f2:e5:fb:91:80:81:77:11:c5:b0:65:0f:1c:3a:bb:72:52:49:
        a7:30:ed:c0:2a:ca:c3:84:bb:35:31:6f:2c:91:9d:95:9b:cd:
        a5:4a:2a:89:06:6a:37:dd:73:48:25:1f:07:3d:82:60:8f:39:
        b5:d8:06:69:7c:c7:80:c2:85:4d:4c:ce:91:53:2c:78:10:55:
        89:87:b9:b7:d8:5e:d7:c4:41:8c:39:10:55:05:8c:d2:05:ae:
        4b:5b:1e:2e:bb:2a:0f:7d:a0:8c:31:0f:51:06:f0:e0:53:3f:
        da:00:9f:81:27:80:51:48:ab:55:36:6f:46:c9:89:d1:ce:ee:
        25:b3:f3:71
-----BEGIN CERTIFICATE-----
MIIDRDCCAiygAwIBAgIQR8hyiRCFjYn0YeSrd3ayaTANBgkqhkiG9w0BAQsFADAP
MQ0wCwYDVQQDDARqb2huMB4XDTI0MTAyNzA3MDg0MloXDTI3MDEzMDA3MDg0Mlow
DzENMAsGA1UEAwwEdGVzdDCCASIwDQYJKoZIhvcNAQEBBQADggEPADCCAQoCggEB
AOcfVL2aqZ7LE4LVMGz1stmZ2OHImWYIINgXT4MTUrPNjNJ4kz9ihlbnvwyibUPi
5QKNBYEZAeUeuP2i1pJa9qGILPcYHatDUMhO/wdiwbWhHyJeIojHe43nAEkBwlF8
yguu08PDNxywdy3TOQ1uNuR5ZilxqAS5SzxJ4pOpKjrRcFW+RH6vvl6p7YhbkvWd
E+iQn3y5cqWLWMG7j7tXhk2wCiS3FsHpU2Wyik4uC3lhWqD6scM0d1LsPkHLtdMx
n8U3TMw+WudcFga6/ysIw4cRgjk3R2XWVYCCGqZI5XebsZKuSm96tzunutFoVaPN
HwLSoa4DOyfmL577/rqKg7kCAwEAAaOBmzCBmDAJBgNVHRMEAjAAMB0GA1UdDgQW
BBQ7n0vi2Dhn2WSCktZmoTQHcyDlZDBKBgNVHSMEQzBBgBQjmu79WZuK4USSg577
Uzr/6vZSgKETpBEwDzENMAsGA1UEAwwEam9oboIUagGk3a780YJWHBA3Z/llfCtV
ZpIwEwYDVR0lBAwwCgYIKwYBBQUHAwIwCwYDVR0PBAQDAgeAMA0GCSqGSIb3DQEB
CwUAA4IBAQBVO0QWZUqgu7yg/cm2jb/5uRFel3K1WOGE73HlZwCk4iUJl5hNaQDo
1zTUcU+EeKPtPdY+f6QT5ZTQbX2KUmW2Str56gYEZ3M8lQCghBllvQ5dlnvck59v
sQkjzAn4zCxrrwstkXJHVFcsG6MXZBa9b4dJdzoAGPqXZUASRhzy5fuRgIF3EcWw
ZQ8cOrtyUkmnMO3AKsrDhLs1MW8skZ2Vm82lSiqJBmo33XNIJR8HPYJgjzm12AZp
fMeAwoVNTM6RUyx4EFWJh7m32F7XxEGMORBVBYzSBa5LWx4uuyoPfaCMMQ9RBvDg
Uz/aAJ+BJ4BRSKtVNm9GyYnRzu4ls/Nx
-----END CERTIFICATE-----
